target datalayout = "e-m:e-p270:32:32-p271:32:32-p272:64:64-i64:64-i128:128-f80:128-n8:16:32:64-S128"
target triple = "x86_64-pc-linux-gnu"

%struct.archive_read = type { %struct.archive, ptr, i32, i64, i64, %struct.archive_read_client, [16 x %struct.archive_read_filter_bidder], ptr, i32, i64, i32, i32, [16 x %struct.archive_format_descriptor], ptr, ptr, ptr, %struct.anon }
%struct.archive = type { i32, i32, ptr, i32, ptr, i32, i32, ptr, %struct.archive_string, ptr, i32, i32, ptr, ptr, i64, i64, i64, i8, i64 }
%struct.archive_string = type { ptr, i64, i64 }
%struct.archive_read_client = type { ptr, ptr, ptr, ptr, ptr, ptr, i32, i32, i64, ptr }
%struct.archive_read_filter_bidder = type { ptr, ptr, ptr }
%struct.archive_format_descriptor = type { ptr, ptr, ptr, ptr, ptr, ptr, ptr, ptr, ptr, ptr, ptr }
%struct.anon = type { ptr, ptr, i32, ptr, ptr }
%struct.rar = type { i32, i64, [2 x i8], [4 x i8], i8, i8, i32, i64, i64, i64, i64, i32, ptr, ptr, i64, i64, [8 x i8], i64, i64, i64, i64, i64, i64, i64, i64, i64, i64, i64, i64, i8, i32, i32, ptr, i32, i8, i8, i64, i32, i8, ptr, i32, i32, i8, %struct.huffman_code, %struct.huffman_code, %struct.huffman_code, %struct.huffman_code, [404 x i8], %struct.lzss, i32, i32, [4 x i32], i32, i32, i8, %struct.rar_filters, i8, i8, i8, i32, %struct.CPpmd7, %struct.CPpmd7z_RangeDec, %struct.IByteIn, i32, ptr, ptr, ptr, ptr, %struct.rar_br, i32 }
%struct.huffman_code = type { ptr, i32, i32, i32, i32, i32, ptr }
%struct.lzss = type { ptr, i32, i64 }
%struct.rar_filters = type { ptr, ptr, ptr, i64, i32, i64, ptr, i64 }
%struct.CPpmd7 = type { ptr, ptr, ptr, i32, i32, i32, i32, i32, i32, i32, i32, i32, ptr, ptr, ptr, ptr, ptr, i32, [38 x i8], [128 x i8], [38 x i32], [256 x i8], [256 x i8], [256 x i8], %struct.CPpmd_See, [25 x [16 x %struct.CPpmd_See]], [128 x [64 x i16]] }
%struct.CPpmd_See = type { i16, i8, i8 }
%struct.CPpmd7z_RangeDec = type { %struct.IPpmd7_RangeDec, i32, i32, i32, i32, ptr }
%struct.IPpmd7_RangeDec = type { ptr, ptr, ptr }
%struct.IByteIn = type { ptr, ptr }
%struct.rar_br = type { i64, i32, i64, ptr }

@.str.32 = private unnamed_addr constant [24 x i8] c"Truncated RAR file data\00", align 1

; Function Attrs: nounwind uwtable
define internal zeroext i8 @ppmd_read(ptr noundef %0) #0 {
  %2 = alloca i8, align 1
  %3 = alloca ptr, align 8
  %4 = alloca ptr, align 8
  %5 = alloca ptr, align 8
  %6 = alloca ptr, align 8
  %7 = alloca i8, align 1
  store ptr %0, ptr %3, align 8
  %8 = load ptr, ptr %3, align 8
  %9 = getelementptr inbounds %struct.IByteIn, ptr %8, i32 0, i32 0
  %10 = load ptr, ptr %9, align 8
  store ptr %10, ptr %4, align 8
  %11 = load ptr, ptr %4, align 8
  %12 = getelementptr inbounds %struct.archive_read, ptr %11, i32 0, i32 13
  %13 = load ptr, ptr %12, align 8
  %14 = getelementptr inbounds %struct.archive_format_descriptor, ptr %13, i32 0, i32 0
  %15 = load ptr, ptr %14, align 8
  store ptr %15, ptr %5, align 8
  %16 = load ptr, ptr %5, align 8
  %17 = getelementptr inbounds %struct.rar, ptr %16, i32 0, i32 68
  store ptr %17, ptr %6, align 8
  %18 = load ptr, ptr %6, align 8
  %19 = getelementptr inbounds %struct.rar_br, ptr %18, i32 0, i32 1
  %20 = load i32, ptr %19, align 8
  %21 = icmp sge i32 %20, 8
  br i1 %21, label %37, label %22

22:                                               ; preds = %1
  %23 = load ptr, ptr %4, align 8
  %24 = load ptr, ptr %6, align 8
  %25 = call i32 @rar_br_fillup(ptr noundef %23, ptr noundef %24)
  %26 = icmp ne i32 %25, 0
  br i1 %26, label %37, label %27

27:                                               ; preds = %22
  %28 = load ptr, ptr %6, align 8
  %29 = getelementptr inbounds %struct.rar_br, ptr %28, i32 0, i32 1
  %30 = load i32, ptr %29, align 8
  %31 = icmp sge i32 %30, 8
  br i1 %31, label %37, label %32

32:                                               ; preds = %27
  %33 = load ptr, ptr %4, align 8
  %34 = getelementptr inbounds %struct.archive_read, ptr %33, i32 0, i32 0
  call void (ptr, i32, ptr, ...) @archive_set_error(ptr noundef %34, i32 noundef 84, ptr noundef @.str.32)
  %35 = load ptr, ptr %5, align 8
  %36 = getelementptr inbounds %struct.rar, ptr %35, i32 0, i32 29
  store i8 0, ptr %36, align 8
  store i8 0, ptr %2, align 1
  br label %57

37:                                               ; preds = %27, %22, %1
  %38 = load ptr, ptr %6, align 8
  %39 = getelementptr inbounds %struct.rar_br, ptr %38, i32 0, i32 0
  %40 = load i64, ptr %39, align 8
  %41 = load ptr, ptr %6, align 8
  %42 = getelementptr inbounds %struct.rar_br, ptr %41, i32 0, i32 1
  %43 = load i32, ptr %42, align 8
  %44 = sub nsw i32 %43, 8
  %45 = zext i32 %44 to i64
  %46 = lshr i64 %40, %45
  %47 = trunc i64 %46 to i32
  %48 = getelementptr inbounds [36 x i32], ptr @cache_masks, i64 0, i64 8
  %49 = load i32, ptr %48, align 16
  %50 = and i32 %47, %49
  %51 = trunc i32 %50 to i8
  store i8 %51, ptr %7, align 1
  %52 = load ptr, ptr %6, align 8
  %53 = getelementptr inbounds %struct.rar_br, ptr %52, i32 0, i32 1
  %54 = load i32, ptr %53, align 8
  %55 = sub nsw i32 %54, 8
  store i32 %55, ptr %53, align 8
  %56 = load i8, ptr %7, align 1
  store i8 %56, ptr %2, align 1
  br label %57

57:                                               ; preds = %37, %32
  %58 = load i8, ptr %2, align 1
  ret i8 %58
}