; Function Attrs: nounwind uwtable
define internal zeroext i8 @ppmd_read(ptr noundef readonly captures(none) %0) #0 {
  %2 = load ptr, ptr %0, align 8
  %3 = getelementptr inbounds nuw i8, ptr %2, i64 2072
  %4 = load ptr, ptr %3, align 8
  %5 = load ptr, ptr %4, align 8
  %6 = getelementptr inbounds nuw i8, ptr %5, i64 20272
  %7 = getelementptr inbounds nuw i8, ptr %5, i64 20280
  %8 = load i32, ptr %7, align 8
  %9 = icmp sgt i32 %8, 7
  br i1 %9, label %15, label %10

10:                                               ; preds = %1
  %11 = tail call fastcc i32 @rar_br_fillup(ptr noundef nonnull %2, ptr noundef nonnull %6)
  %.not = icmp ne i32 %11, 0
  %.pre = load i32, ptr %7, align 8
  %12 = icmp sgt i32 %.pre, 7
  %or.cond = select i1 %.not, i1 true, i1 %12
  br i1 %or.cond, label %15, label %13

13:                                               ; preds = %10
  tail call void (ptr, i32, ptr, ...) @archive_set_error(ptr noundef nonnull %2, i32 noundef 84, ptr noundef nonnull @.str.32) #19
  %14 = getelementptr inbounds nuw i8, ptr %5, i64 208
  store i8 0, ptr %14, align 8
  br label %22

15:                                               ; preds = %10, %1
  %16 = phi i32 [ %.pre, %10 ], [ %8, %1 ]
  %17 = load i64, ptr %6, align 8
  %18 = add nsw i32 %16, -8
  %19 = zext nneg i32 %18 to i64
  %20 = lshr i64 %17, %19
  %21 = trunc i64 %20 to i8
  store i32 %18, ptr %7, align 8
  br label %22

22:                                               ; preds = %15, %13
  %.0 = phi i8 [ %21, %15 ], [ 0, %13 ]
  ret i8 %.0
}